#include <math.h>
#include <stdio.h>
#include <stdlib.h>
#include <string.h>


int main(){
    int n,i,j,k;
    char a[256],b[256];
    scanf("%d",&n);
    for(i=0;i<n;i++){
        scanf("%s",&a);
        for(j=0;a[j]!='\0';j++){
            if(a[j]=='A'){
                b[j]='T';
            }else if(a[j]=='T'){
                b[j]='A';
            }else if(a[j]=='G'){
                b[j]='C';
            }else if(a[j]=='C'){
                b[j]='G';
            }
        }
    for(j=0;j<256;j++){
        if(a[j]=='\0'){
            b[j]='\0';
        }
    }
     printf("%s\n",b);
    }
    return 0;
}
